target datalayout = "e-m:e-p270:32:32-p271:32:32-p272:64:64-i64:64-i128:128-f80:128-n8:16:32:64-S128"
target triple = "x86_64-unknown-linux-gnu"

%union.pthread_mutex_t = type { %struct.__pthread_mutex_s }
%struct.__pthread_mutex_s = type { i32, i32, i32, i32, i32, i16, i16, %struct.__pthread_internal_list }
%struct.__pthread_internal_list = type { ptr, ptr }
%struct.QemuMutex = type { %union.pthread_mutex_t, i8 }
%struct.QemuLockable = type { ptr, ptr, ptr }

@target_fd_max = external global i32, align 4
@target_fd_trans_lock = external global %struct.QemuMutex, align 8
@target_fd_trans = external global ptr, align 8

; Function Attrs: nounwind sspstrong uwtable
define internal void @qemu_lockable_unlock(ptr noundef %x) #0 {
entry:
  %x.addr = alloca ptr, align 8
  store ptr %x, ptr %x.addr, align 8
  %0 = load ptr, ptr %x.addr, align 8
  %unlock = getelementptr inbounds %struct.QemuLockable, ptr %0, i32 0, i32 2
  %1 = load ptr, ptr %unlock, align 8
  %2 = load ptr, ptr %x.addr, align 8
  %object = getelementptr inbounds %struct.QemuLockable, ptr %2, i32 0, i32 0
  %3 = load ptr, ptr %object, align 8
  call void %1(ptr noundef %3)
  ret void
}

; Function Attrs: nounwind sspstrong uwtable
define internal void @qemu_lockable_auto_unlock(ptr noundef %x) #0 {
entry:
  %x.addr = alloca ptr, align 8
  store ptr %x, ptr %x.addr, align 8
  %0 = load ptr, ptr %x.addr, align 8
  %tobool = icmp ne ptr %0, null
  br i1 %tobool, label %if.then, label %if.end

if.then:                                          ; preds = %entry
  %1 = load ptr, ptr %x.addr, align 8
  call void @qemu_lockable_unlock(ptr noundef %1)
  br label %if.end

if.end:                                           ; preds = %if.then, %entry
  ret void
}

; Function Attrs: nounwind sspstrong uwtable
define internal void @glib_autoptr_clear_QemuLockable(ptr noundef %_ptr) #0 {
entry:
  %_ptr.addr = alloca ptr, align 8
  store ptr %_ptr, ptr %_ptr.addr, align 8
  %0 = load ptr, ptr %_ptr.addr, align 8
  %tobool = icmp ne ptr %0, null
  br i1 %tobool, label %if.then, label %if.end

if.then:                                          ; preds = %entry
  %1 = load ptr, ptr %_ptr.addr, align 8
  call void @qemu_lockable_auto_unlock(ptr noundef %1)
  br label %if.end

if.end:                                           ; preds = %if.then, %entry
  ret void
}

; Function Attrs: nounwind sspstrong uwtable
define internal void @qemu_lockable_lock(ptr noundef %x) #0 {
entry:
  %x.addr = alloca ptr, align 8
  store ptr %x, ptr %x.addr, align 8
  %0 = load ptr, ptr %x.addr, align 8
  %lock = getelementptr inbounds %struct.QemuLockable, ptr %0, i32 0, i32 1
  %1 = load ptr, ptr %lock, align 8
  %2 = load ptr, ptr %x.addr, align 8
  %object = getelementptr inbounds %struct.QemuLockable, ptr %2, i32 0, i32 0
  %3 = load ptr, ptr %object, align 8
  call void %1(ptr noundef %3)
  ret void
}

; Function Attrs: nounwind sspstrong uwtable
define internal void @glib_autoptr_cleanup_QemuLockable(ptr noundef %_ptr) #0 {
entry:
  %_ptr.addr = alloca ptr, align 8
  store ptr %_ptr, ptr %_ptr.addr, align 8
  %0 = load ptr, ptr %_ptr.addr, align 8
  %1 = load ptr, ptr %0, align 8
  call void @glib_autoptr_clear_QemuLockable(ptr noundef %1)
  ret void
}

; Function Attrs: nounwind sspstrong uwtable
define internal void @internal_fd_trans_register_unsafe(i32 noundef %fd, ptr noundef %trans) #0 {
entry:
  %fd.addr = alloca i32, align 4
  %trans.addr = alloca ptr, align 8
  %oldmax = alloca i32, align 4
  store i32 %fd, ptr %fd.addr, align 4
  store ptr %trans, ptr %trans.addr, align 8
  %0 = load i32, ptr %fd.addr, align 4
  %1 = load i32, ptr @target_fd_max, align 4
  %cmp = icmp uge i32 %0, %1
  br i1 %cmp, label %if.then, label %if.end

if.then:                                          ; preds = %entry
  %2 = load i32, ptr @target_fd_max, align 4
  store i32 %2, ptr %oldmax, align 4
  %3 = load i32, ptr %fd.addr, align 4
  %shr = ashr i32 %3, 6
  %add = add i32 %shr, 1
  %shl = shl i32 %add, 6
  store i32 %shl, ptr @target_fd_max, align 4
  %4 = load ptr, ptr @target_fd_trans, align 8
  %5 = load i32, ptr @target_fd_max, align 4
  %conv = zext i32 %5 to i64
  %call = call ptr @g_realloc_n(ptr noundef %4, i64 noundef %conv, i64 noundef 8)
  store ptr %call, ptr @target_fd_trans, align 8
  %6 = load ptr, ptr @target_fd_trans, align 8
  %7 = load i32, ptr %oldmax, align 4
  %idx.ext = zext i32 %7 to i64
  %add.ptr = getelementptr ptr, ptr %6, i64 %idx.ext
  %8 = load i32, ptr @target_fd_max, align 4
  %9 = load i32, ptr %oldmax, align 4
  %sub = sub i32 %8, %9
  %conv1 = zext i32 %sub to i64
  %mul = mul i64 %conv1, 8
  call void @llvm.memset.p0.i64(ptr align 1 %add.ptr, i8 0, i64 %mul, i1 false)
  br label %if.end

if.end:                                           ; preds = %if.then, %entry
  %10 = load ptr, ptr %trans.addr, align 8
  %11 = load ptr, ptr @target_fd_trans, align 8
  %12 = load i32, ptr %fd.addr, align 4
  %idxprom = sext i32 %12 to i64
  %arrayidx = getelementptr ptr, ptr %11, i64 %idxprom
  store ptr %10, ptr %arrayidx, align 8
  ret void
}

; Function Attrs: nounwind sspstrong uwtable
define internal void @internal_fd_trans_unregister_unsafe(i32 noundef %fd) #0 {
entry:
  %fd.addr = alloca i32, align 4
  store i32 %fd, ptr %fd.addr, align 4
  %0 = load i32, ptr %fd.addr, align 4
  %cmp = icmp sge i32 %0, 0
  br i1 %cmp, label %land.lhs.true, label %if.end

land.lhs.true:                                    ; preds = %entry
  %1 = load i32, ptr %fd.addr, align 4
  %2 = load i32, ptr @target_fd_max, align 4
  %cmp1 = icmp ult i32 %1, %2
  br i1 %cmp1, label %if.then, label %if.end

if.then:                                          ; preds = %land.lhs.true
  %3 = load ptr, ptr @target_fd_trans, align 8
  %4 = load i32, ptr %fd.addr, align 4
  %idxprom = sext i32 %4 to i64
  %arrayidx = getelementptr ptr, ptr %3, i64 %idxprom
  store ptr null, ptr %arrayidx, align 8
  br label %if.end

if.end:                                           ; preds = %if.then, %land.lhs.true, %entry
  ret void
}

; Function Attrs: nounwind sspstrong uwtable
define internal ptr @qemu_lockable_auto_lock(ptr noundef %x) #0 {
entry:
  %x.addr = alloca ptr, align 8
  store ptr %x, ptr %x.addr, align 8
  %0 = load ptr, ptr %x.addr, align 8
  call void @qemu_lockable_lock(ptr noundef %0)
  %1 = load ptr, ptr %x.addr, align 8
  ret ptr %1
}

; Function Attrs: nounwind sspstrong uwtable
define internal void @fd_trans_dup(i32 noundef %oldfd, i32 noundef %newfd) #0 {
entry:
  %x.addr.i = alloca ptr, align 8
  %lockable.addr.i = alloca ptr, align 8
  %oldfd.addr = alloca i32, align 4
  %newfd.addr = alloca i32, align 4
  %qemu_lockable_auto5 = alloca ptr, align 8
  %.compoundliteral = alloca %struct.QemuLockable, align 8
  store i32 %oldfd, ptr %oldfd.addr, align 4
  store i32 %newfd, ptr %newfd.addr, align 4
  %object = getelementptr inbounds %struct.QemuLockable, ptr %.compoundliteral, i32 0, i32 0
  store ptr @target_fd_trans_lock, ptr %object, align 8
  %lock = getelementptr inbounds %struct.QemuLockable, ptr %.compoundliteral, i32 0, i32 1
  store ptr @qemu_mutex_lock, ptr %lock, align 8
  %unlock = getelementptr inbounds %struct.QemuLockable, ptr %.compoundliteral, i32 0, i32 2
  store ptr @qemu_mutex_unlock, ptr %unlock, align 8
  store ptr @target_fd_trans_lock, ptr %x.addr.i, align 8
  store ptr %.compoundliteral, ptr %lockable.addr.i, align 8
  %0 = load ptr, ptr %x.addr.i, align 8
  %tobool.i = icmp ne ptr %0, null
  br i1 %tobool.i, label %cond.true.i, label %cond.false.i

cond.true.i:                                      ; preds = %entry
  %1 = load ptr, ptr %lockable.addr.i, align 8
  br label %qemu_make_lockable.exit

cond.false.i:                                     ; preds = %entry
  br label %qemu_make_lockable.exit

qemu_make_lockable.exit:                          ; preds = %cond.false.i, %cond.true.i
  %cond.i = phi ptr [ %1, %cond.true.i ], [ null, %cond.false.i ]
  %call1 = call ptr @qemu_lockable_auto_lock(ptr noundef %cond.i)
  store ptr %call1, ptr %qemu_lockable_auto5, align 8
  %2 = load i32, ptr %newfd.addr, align 4
  call void @internal_fd_trans_unregister_unsafe(i32 noundef %2)
  %3 = load i32, ptr %oldfd.addr, align 4
  %4 = load i32, ptr @target_fd_max, align 4
  %cmp = icmp ult i32 %3, %4
  br i1 %cmp, label %land.lhs.true, label %if.end

land.lhs.true:                                    ; preds = %qemu_make_lockable.exit
  %5 = load ptr, ptr @target_fd_trans, align 8
  %6 = load i32, ptr %oldfd.addr, align 4
  %idxprom = sext i32 %6 to i64
  %arrayidx = getelementptr ptr, ptr %5, i64 %idxprom
  %7 = load ptr, ptr %arrayidx, align 8
  %tobool = icmp ne ptr %7, null
  br i1 %tobool, label %if.then, label %if.end

if.then:                                          ; preds = %land.lhs.true
  %8 = load i32, ptr %newfd.addr, align 4
  %9 = load ptr, ptr @target_fd_trans, align 8
  %10 = load i32, ptr %oldfd.addr, align 4
  %idxprom2 = sext i32 %10 to i64
  %arrayidx3 = getelementptr ptr, ptr %9, i64 %idxprom2
  %11 = load ptr, ptr %arrayidx3, align 8
  call void @internal_fd_trans_register_unsafe(i32 noundef %8, ptr noundef %11)
  br label %if.end

if.end:                                           ; preds = %if.then, %land.lhs.true, %qemu_make_lockable.exit
  call void @glib_autoptr_cleanup_QemuLockable(ptr noundef %qemu_lockable_auto5)
  ret void
}