; Function Attrs: nounwind sspstrong uwtable
define internal fastcc void @fd_trans_dup(i32 noundef %oldfd, i32 noundef %newfd) unnamed_addr #2 {
entry:
  %0 = load atomic i64, ptr @qemu_mutex_lock_func monotonic, align 8
  %1 = inttoptr i64 %0 to ptr
  tail call void %1(ptr noundef nonnull @target_fd_trans_lock, ptr noundef nonnull @.str.630, i32 noundef 122) #27
  %cmp.i = icmp sgt i32 %newfd, -1
  %2 = load i32, ptr @target_fd_max, align 4
  %cmp1.i = icmp ult i32 %newfd, %2
  %or.cond.i = select i1 %cmp.i, i1 %cmp1.i, i1 false
  br i1 %or.cond.i, label %if.then.i, label %internal_fd_trans_unregister_unsafe.exit

if.then.i:                                        ; preds = %entry
  %3 = load ptr, ptr @target_fd_trans, align 8
  %idxprom.i = zext nneg i32 %newfd to i64
  %arrayidx.i = getelementptr ptr, ptr %3, i64 %idxprom.i
  store ptr null, ptr %arrayidx.i, align 8
  %.pre = load i32, ptr @target_fd_max, align 4
  br label %internal_fd_trans_unregister_unsafe.exit

internal_fd_trans_unregister_unsafe.exit:         ; preds = %entry, %if.then.i
  %4 = phi i32 [ %2, %entry ], [ %.pre, %if.then.i ]
  %cmp = icmp ult i32 %oldfd, %4
  br i1 %cmp, label %land.lhs.true, label %glib_autoptr_cleanup_QemuLockable.exit

land.lhs.true:                                    ; preds = %internal_fd_trans_unregister_unsafe.exit
  %5 = load ptr, ptr @target_fd_trans, align 8
  %idxprom = sext i32 %oldfd to i64
  %arrayidx = getelementptr ptr, ptr %5, i64 %idxprom
  %6 = load ptr, ptr %arrayidx, align 8
  %tobool.not = icmp eq ptr %6, null
  br i1 %tobool.not, label %glib_autoptr_cleanup_QemuLockable.exit, label %if.then

if.then:                                          ; preds = %land.lhs.true
  %cmp.not.i = icmp ult i32 %newfd, %4
  br i1 %cmp.not.i, label %internal_fd_trans_register_unsafe.exit, label %if.then.i4

if.then.i4:                                       ; preds = %if.then
  %shr.i = and i32 %newfd, -64
  %shl.i = add i32 %shr.i, 64
  store i32 %shl.i, ptr @target_fd_max, align 4
  %conv.i = zext i32 %shl.i to i64
  %call.i = tail call ptr @g_realloc_n(ptr noundef nonnull %5, i64 noundef %conv.i, i64 noundef 8) #27
  store ptr %call.i, ptr @target_fd_trans, align 8
  %idx.ext.i = zext i32 %4 to i64
  %add.ptr.i = getelementptr ptr, ptr %call.i, i64 %idx.ext.i
  %7 = load i32, ptr @target_fd_max, align 4
  %sub.i = sub i32 %7, %4
  %conv1.i = zext i32 %sub.i to i64
  %mul.i = shl nuw nsw i64 %conv1.i, 3
  tail call void @llvm.memset.p0.i64(ptr align 1 %add.ptr.i, i8 0, i64 %mul.i, i1 false)
  %.pre7 = load ptr, ptr @target_fd_trans, align 8
  br label %internal_fd_trans_register_unsafe.exit

internal_fd_trans_register_unsafe.exit:           ; preds = %if.then, %if.then.i4
  %8 = phi ptr [ %5, %if.then ], [ %.pre7, %if.then.i4 ]
  %idxprom.i5 = sext i32 %newfd to i64
  %arrayidx.i6 = getelementptr ptr, ptr %8, i64 %idxprom.i5
  store ptr %6, ptr %arrayidx.i6, align 8
  br label %glib_autoptr_cleanup_QemuLockable.exit

glib_autoptr_cleanup_QemuLockable.exit:           ; preds = %internal_fd_trans_register_unsafe.exit, %land.lhs.true, %internal_fd_trans_unregister_unsafe.exit
  tail call void @qemu_mutex_unlock_impl(ptr noundef nonnull @target_fd_trans_lock, ptr noundef nonnull @.str.630, i32 noundef 132) #27
  ret void
}